target datalayout = "e-m:e-p270:32:32-p271:32:32-p272:64:64-i64:64-i128:128-f80:128-n8:16:32:64-S128"
target triple = "x86_64-pc-linux-gnu"

@uriencode_map = internal global [256 x ptr] zeroinitializer, align 16

; Function Attrs: nounwind uwtable
define dso_local zeroext i1 @uriencode(ptr noundef %0, ptr noundef %1, i64 noundef %2, i64 noundef %3) #0 {
  %5 = alloca i1, align 1
  %6 = alloca ptr, align 8
  %7 = alloca ptr, align 8
  %8 = alloca i64, align 8
  %9 = alloca i64, align 8
  %10 = alloca i32, align 4
  %11 = alloca i64, align 8
  %12 = alloca i32, align 4
  store ptr %0, ptr %6, align 8, !tbaa !4
  store ptr %1, ptr %7, align 8, !tbaa !4
  store i64 %2, ptr %8, align 8, !tbaa !17
  store i64 %3, ptr %9, align 8, !tbaa !17
  call void @llvm.lifetime.start.p0(i64 4, ptr %10) #8
  call void @llvm.lifetime.start.p0(i64 8, ptr %11) #8
  store i64 0, ptr %11, align 8, !tbaa !17
  store i32 0, ptr %10, align 4, !tbaa !9
  br label %13

13:                                               ; preds = %60, %4
  %14 = load i32, ptr %10, align 4, !tbaa !9
  %15 = sext i32 %14 to i64
  %16 = load i64, ptr %8, align 8, !tbaa !17
  %17 = icmp ult i64 %15, %16
  br i1 %17, label %18, label %63

18:                                               ; preds = %13
  %19 = load i64, ptr %11, align 8, !tbaa !17
  %20 = add i64 %19, 4
  %21 = load i64, ptr %9, align 8, !tbaa !17
  %22 = icmp ugt i64 %20, %21
  br i1 %22, label %23, label %24

23:                                               ; preds = %18
  store i1 false, ptr %5, align 1
  store i32 1, ptr %12, align 4
  br label %67

24:                                               ; preds = %18
  %25 = load ptr, ptr %6, align 8, !tbaa !4
  %26 = load i32, ptr %10, align 4, !tbaa !9
  %27 = sext i32 %26 to i64
  %28 = getelementptr inbounds i8, ptr %25, i64 %27
  %29 = load i8, ptr %28, align 1, !tbaa !19
  %30 = zext i8 %29 to i64
  %31 = getelementptr inbounds nuw [256 x ptr], ptr @uriencode_map, i64 0, i64 %30
  %32 = load ptr, ptr %31, align 8, !tbaa !4
  %33 = icmp ne ptr %32, null
  br i1 %33, label %34, label %48

34:                                               ; preds = %24
  %35 = load ptr, ptr %7, align 8, !tbaa !4
  %36 = load i64, ptr %11, align 8, !tbaa !17
  %37 = getelementptr inbounds nuw i8, ptr %35, i64 %36
  %38 = load ptr, ptr %6, align 8, !tbaa !4
  %39 = load i32, ptr %10, align 4, !tbaa !9
  %40 = sext i32 %39 to i64
  %41 = getelementptr inbounds i8, ptr %38, i64 %40
  %42 = load i8, ptr %41, align 1, !tbaa !19
  %43 = zext i8 %42 to i64
  %44 = getelementptr inbounds nuw [256 x ptr], ptr @uriencode_map, i64 0, i64 %43
  %45 = load ptr, ptr %44, align 8, !tbaa !4
  call void @llvm.memcpy.p0.p0.i64(ptr align 1 %37, ptr align 1 %45, i64 3, i1 false)
  %46 = load i64, ptr %11, align 8, !tbaa !17
  %47 = add i64 %46, 3
  store i64 %47, ptr %11, align 8, !tbaa !17
  br label %59

48:                                               ; preds = %24
  %49 = load ptr, ptr %6, align 8, !tbaa !4
  %50 = load i32, ptr %10, align 4, !tbaa !9
  %51 = sext i32 %50 to i64
  %52 = getelementptr inbounds i8, ptr %49, i64 %51
  %53 = load i8, ptr %52, align 1, !tbaa !19
  %54 = load ptr, ptr %7, align 8, !tbaa !4
  %55 = load i64, ptr %11, align 8, !tbaa !17
  %56 = getelementptr inbounds nuw i8, ptr %54, i64 %55
  store i8 %53, ptr %56, align 1, !tbaa !19
  %57 = load i64, ptr %11, align 8, !tbaa !17
  %58 = add i64 %57, 1
  store i64 %58, ptr %11, align 8, !tbaa !17
  br label %59

59:                                               ; preds = %48, %34
  br label %60

60:                                               ; preds = %59
  %61 = load i32, ptr %10, align 4, !tbaa !9
  %62 = add nsw i32 %61, 1
  store i32 %62, ptr %10, align 4, !tbaa !9
  br label %13, !llvm.loop !20

63:                                               ; preds = %13
  %64 = load ptr, ptr %7, align 8, !tbaa !4
  %65 = load i64, ptr %11, align 8, !tbaa !17
  %66 = getelementptr inbounds nuw i8, ptr %64, i64 %65
  store i8 0, ptr %66, align 1, !tbaa !19
  store i1 true, ptr %5, align 1
  store i32 1, ptr %12, align 4
  br label %67

67:                                               ; preds = %63, %23
  call void @llvm.lifetime.end.p0(i64 8, ptr %11) #8
  call void @llvm.lifetime.end.p0(i64 4, ptr %10) #8
  %68 = load i1, ptr %5, align 1
  ret i1 %68
}