; Function Attrs: nofree norecurse nosync nounwind memory(readwrite, inaccessiblemem: none) uwtable
define dso_local noundef zeroext i1 @uriencode(ptr noundef readonly captures(none) %0, ptr noundef writeonly captures(none) %1, i64 noundef %2, i64 noundef %3) local_unnamed_addr #4 {
  %5 = icmp eq i64 %2, 0
  br i1 %5, label %._crit_edge, label %.lr.ph

.lr.ph:                                           ; preds = %4, %17
  %indvars.iv = phi i64 [ %indvars.iv.next, %17 ], [ 0, %4 ]
  %.026 = phi i64 [ %18, %17 ], [ 0, %4 ]
  %6 = add i64 %.026, 4
  %7 = icmp ugt i64 %6, %3
  br i1 %7, label %.loopexit, label %8

8:                                                ; preds = %.lr.ph
  %9 = getelementptr inbounds nuw i8, ptr %0, i64 %indvars.iv
  %10 = load i8, ptr %9, align 1, !tbaa !15
  %11 = zext i8 %10 to i64
  %12 = getelementptr inbounds nuw [256 x ptr], ptr @uriencode_map, i64 0, i64 %11
  %13 = load ptr, ptr %12, align 8, !tbaa !11
  %.not = icmp eq ptr %13, null
  %14 = getelementptr inbounds nuw i8, ptr %1, i64 %.026
  br i1 %.not, label %16, label %15

15:                                               ; preds = %8
  tail call void @llvm.memcpy.p0.p0.i64(ptr noundef nonnull align 1 dereferenceable(3) %14, ptr noundef nonnull align 1 dereferenceable(3) %13, i64 3, i1 false)
  br label %17

16:                                               ; preds = %8
  store i8 %10, ptr %14, align 1, !tbaa !15
  br label %17

17:                                               ; preds = %15, %16
  %.sink = phi i64 [ 3, %15 ], [ 1, %16 ]
  %18 = add i64 %.026, %.sink
  %indvars.iv.next = add nuw i64 %indvars.iv, 1
  %exitcond.not = icmp eq i64 %indvars.iv.next, %2
  br i1 %exitcond.not, label %._crit_edge, label %.lr.ph, !llvm.loop !16

._crit_edge:                                      ; preds = %17, %4
  %.0.lcssa = phi i64 [ 0, %4 ], [ %18, %17 ]
  %19 = getelementptr inbounds nuw i8, ptr %1, i64 %.0.lcssa
  store i8 0, ptr %19, align 1, !tbaa !15
  br label %.loopexit

.loopexit:                                        ; preds = %.lr.ph, %._crit_edge
  %20 = phi i1 [ true, %._crit_edge ], [ false, %.lr.ph ]
  ret i1 %20
}